target datalayout = "e-m:e-p270:32:32-p271:32:32-p272:64:64-i64:64-i128:128-f80:128-n8:16:32:64-S128"
target triple = "x86_64-pc-linux-gnu"

%"class.ncnn::CpuSet" = type { %struct.cpu_set_t }
%struct.cpu_set_t = type { [16 x i64] }

@_ZL23g_cpu_affinity_mask_all = internal global %"class.ncnn::CpuSet" zeroinitializer, align 8
@_ZL26g_cpu_affinity_mask_little = internal global %"class.ncnn::CpuSet" zeroinitializer, align 8
@_ZL23g_cpu_affinity_mask_big = internal global %"class.ncnn::CpuSet" zeroinitializer, align 8
@stderr = external global ptr, align 8
@.str.17 = private unnamed_addr constant [2 x i8] c"\0A\00", align 1
@.str.32 = private unnamed_addr constant [27 x i8] c"powersave %d not supported\00", align 1

; Function Attrs: mustprogress uwtable
define hidden noundef nonnull align 8 dereferenceable(128) ptr @_ZN4ncnn28get_cpu_thread_affinity_maskEi(i32 noundef %0) #1 {
  %2 = alloca ptr, align 8
  %3 = alloca i32, align 4
  store i32 %0, ptr %3, align 4, !tbaa !9
  call void @_ZL30try_initialize_global_cpu_infov()
  %4 = load i32, ptr %3, align 4, !tbaa !9
  %5 = icmp eq i32 %4, 0
  br i1 %5, label %6, label %7

6:                                                ; preds = %1
  store ptr @_ZL23g_cpu_affinity_mask_all, ptr %2, align 8
  br label %23

7:                                                ; preds = %1
  %8 = load i32, ptr %3, align 4, !tbaa !9
  %9 = icmp eq i32 %8, 1
  br i1 %9, label %10, label %11

10:                                               ; preds = %7
  store ptr @_ZL26g_cpu_affinity_mask_little, ptr %2, align 8
  br label %23

11:                                               ; preds = %7
  %12 = load i32, ptr %3, align 4, !tbaa !9
  %13 = icmp eq i32 %12, 2
  br i1 %13, label %14, label %15

14:                                               ; preds = %11
  store ptr @_ZL23g_cpu_affinity_mask_big, ptr %2, align 8
  br label %23

15:                                               ; preds = %11
  br label %16

16:                                               ; preds = %15
  %17 = load ptr, ptr @stderr, align 8, !tbaa !15
  %18 = load i32, ptr %3, align 4, !tbaa !9
  %19 = call i32 (ptr, ptr, ...) @fprintf(ptr noundef %17, ptr noundef @.str.32, i32 noundef %18) #17
  %20 = load ptr, ptr @stderr, align 8, !tbaa !15
  %21 = call i32 (ptr, ptr, ...) @fprintf(ptr noundef %20, ptr noundef @.str.17) #17
  br label %22

22:                                               ; preds = %16
  store ptr @_ZL23g_cpu_affinity_mask_all, ptr %2, align 8
  br label %23

23:                                               ; preds = %22, %14, %10, %6
  %24 = load ptr, ptr %2, align 8
  ret ptr %24
}