; Function Attrs: mustprogress uwtable
define hidden noundef nonnull align 8 dereferenceable(128) ptr @_ZN4ncnn28get_cpu_thread_affinity_maskEi(i32 noundef %0) local_unnamed_addr #5 {
  tail call fastcc void @_ZL30try_initialize_global_cpu_infov()
  %2 = icmp ult i32 %0, 3
  br i1 %2, label %switch.lookup, label %3

3:                                                ; preds = %1
  %4 = load ptr, ptr @stderr, align 8, !tbaa !15
  %5 = tail call i32 (ptr, ptr, ...) @fprintf(ptr noundef %4, ptr noundef nonnull @.str.32, i32 noundef %0) #28
  %6 = load ptr, ptr @stderr, align 8, !tbaa !15
  %fputc = tail call i32 @fputc(i32 10, ptr %6)
  br label %8

switch.lookup:                                    ; preds = %1
  %7 = zext nneg i32 %0 to i64
  %switch.gep = getelementptr inbounds nuw [3 x ptr], ptr @switch.table._ZN4ncnn17set_cpu_powersaveEi, i64 0, i64 %7
  %switch.load = load ptr, ptr %switch.gep, align 8
  br label %8

8:                                                ; preds = %switch.lookup, %3
  %.0 = phi ptr [ @_ZL23g_cpu_affinity_mask_all, %3 ], [ %switch.load, %switch.lookup ]
  ret ptr %.0
}